; Function Attrs: mustprogress nofree norecurse nounwind uwtable
define void @_ZNK5osgeo4proj9operation19CoordinateOperation9targetCRSEv(ptr dead_on_unwind noalias writable sret(%"class.std::shared_ptr") align 8 captures(none) initializes((8, 16)) %0, ptr noundef nonnull readonly align 8 captures(none) dereferenceable(72) %1) local_unnamed_addr #13 align 2 {
  %3 = getelementptr inbounds nuw i8, ptr %1, i64 64
  %4 = load ptr, ptr %3, align 8, !tbaa !27
  %5 = getelementptr inbounds nuw i8, ptr %4, i64 80
  tail call void @llvm.experimental.noalias.scope.decl(metadata !45)
  %6 = getelementptr inbounds nuw i8, ptr %0, i64 8
  %7 = getelementptr inbounds nuw i8, ptr %4, i64 88
  %8 = load ptr, ptr %7, align 8, !tbaa !35, !noalias !45
  store ptr %8, ptr %6, align 8, !tbaa !38, !alias.scope !45
  %.not.i.i.i.i = icmp eq ptr %8, null
  br i1 %.not.i.i.i.i, label %_ZNKSt14__shared_countILN9__gnu_cxx12_Lock_policyE2EE16_M_get_use_countEv.exit.thread.i.i.i, label %9

9:                                                ; preds = %2
  %10 = getelementptr inbounds nuw i8, ptr %8, i64 8
  %11 = load atomic i32, ptr %10 monotonic, align 8, !noalias !45
  br label %12

12:                                               ; preds = %13, %9
  %.06.i.i.i.i.i = phi i32 [ %11, %9 ], [ %17, %13 ]
  %.not.not.not.i.not.i.i.i.i = icmp eq i32 %.06.i.i.i.i.i, 0
  br i1 %.not.not.not.i.not.i.i.i.i, label %_ZNSt16_Sp_counted_baseILN9__gnu_cxx12_Lock_policyE2EE23_M_add_ref_lock_nothrowEv.exit.i.i.i.i, label %13

13:                                               ; preds = %12
  %14 = add nsw i32 %.06.i.i.i.i.i, 1
  %15 = cmpxchg weak ptr %10, i32 %.06.i.i.i.i.i, i32 %14 acq_rel monotonic, align 8, !noalias !45
  %16 = extractvalue { i32, i1 } %15, 1
  %17 = extractvalue { i32, i1 } %15, 0
  br i1 %16, label %_ZNSt14__shared_countILN9__gnu_cxx12_Lock_policyE2EEC2ERKSt12__weak_countILS1_2EESt9nothrow_t.exit.i.i.i, label %12, !llvm.loop !40

_ZNSt16_Sp_counted_baseILN9__gnu_cxx12_Lock_policyE2EE23_M_add_ref_lock_nothrowEv.exit.i.i.i.i: ; preds = %12
  store ptr null, ptr %6, align 8, !tbaa !38, !alias.scope !45
  br label %_ZNKSt14__shared_countILN9__gnu_cxx12_Lock_policyE2EE16_M_get_use_countEv.exit.thread.i.i.i

_ZNSt14__shared_countILN9__gnu_cxx12_Lock_policyE2EEC2ERKSt12__weak_countILS1_2EESt9nothrow_t.exit.i.i.i: ; preds = %13
  %.pr.i.i.i = load ptr, ptr %6, align 8, !tbaa !38, !alias.scope !45
  %.not.i3.i.i.i = icmp eq ptr %.pr.i.i.i, null
  br i1 %.not.i3.i.i.i, label %_ZNKSt14__shared_countILN9__gnu_cxx12_Lock_policyE2EE16_M_get_use_countEv.exit.thread.i.i.i, label %_ZNKSt14__shared_countILN9__gnu_cxx12_Lock_policyE2EE16_M_get_use_countEv.exit.i.i.i

_ZNKSt14__shared_countILN9__gnu_cxx12_Lock_policyE2EE16_M_get_use_countEv.exit.i.i.i: ; preds = %_ZNSt14__shared_countILN9__gnu_cxx12_Lock_policyE2EEC2ERKSt12__weak_countILS1_2EESt9nothrow_t.exit.i.i.i
  %18 = getelementptr inbounds nuw i8, ptr %.pr.i.i.i, i64 8
  %19 = load atomic i32, ptr %18 monotonic, align 8, !noalias !45
  %.fr.i.i.i = freeze i32 %19
  %.not.i.i.i = icmp eq i32 %.fr.i.i.i, 0
  %20 = load ptr, ptr %5, align 8, !noalias !45
  br i1 %.not.i.i.i, label %_ZNKSt14__shared_countILN9__gnu_cxx12_Lock_policyE2EE16_M_get_use_countEv.exit.thread.i.i.i, label %_ZNKSt8weak_ptrIN5osgeo4proj3crs3CRSEE4lockEv.exit

_ZNKSt14__shared_countILN9__gnu_cxx12_Lock_policyE2EE16_M_get_use_countEv.exit.thread.i.i.i: ; preds = %_ZNKSt14__shared_countILN9__gnu_cxx12_Lock_policyE2EE16_M_get_use_countEv.exit.i.i.i, %_ZNSt14__shared_countILN9__gnu_cxx12_Lock_policyE2EEC2ERKSt12__weak_countILS1_2EESt9nothrow_t.exit.i.i.i, %_ZNSt16_Sp_counted_baseILN9__gnu_cxx12_Lock_policyE2EE23_M_add_ref_lock_nothrowEv.exit.i.i.i.i, %2
  br label %_ZNKSt8weak_ptrIN5osgeo4proj3crs3CRSEE4lockEv.exit

_ZNKSt8weak_ptrIN5osgeo4proj3crs3CRSEE4lockEv.exit: ; preds = %_ZNKSt14__shared_countILN9__gnu_cxx12_Lock_policyE2EE16_M_get_use_countEv.exit.i.i.i, %_ZNKSt14__shared_countILN9__gnu_cxx12_Lock_policyE2EE16_M_get_use_countEv.exit.thread.i.i.i
  %21 = phi ptr [ null, %_ZNKSt14__shared_countILN9__gnu_cxx12_Lock_policyE2EE16_M_get_use_countEv.exit.thread.i.i.i ], [ %20, %_ZNKSt14__shared_countILN9__gnu_cxx12_Lock_policyE2EE16_M_get_use_countEv.exit.i.i.i ]
  store ptr %21, ptr %0, align 8, !tbaa !42, !alias.scope !45
  ret void
}